target datalayout = "e-m:e-p270:32:32-p271:32:32-p272:64:64-i64:64-i128:128-f80:128-n8:16:32:64-S128"
target triple = "x86_64-unknown-linux-gnu"

%"class.QuantLib::GaussChebyshevIntegration" = type { %"class.QuantLib::GaussianQuadrature" }
%"class.QuantLib::GaussianQuadrature" = type { %"class.QuantLib::Array", %"class.QuantLib::Array" }
%"class.QuantLib::Array" = type { %"class.std::unique_ptr", i64 }
%"class.std::unique_ptr" = type { %"struct.std::__uniq_ptr_data" }
%"struct.std::__uniq_ptr_data" = type { %"class.std::__uniq_ptr_impl" }
%"class.std::__uniq_ptr_impl" = type { %"class.std::tuple" }
%"class.std::tuple" = type { %"struct.std::_Tuple_impl" }
%"struct.std::_Tuple_impl" = type { %"struct.std::_Head_base.26" }
%"struct.std::_Head_base.26" = type { ptr }
%"struct.QuantLib::(anonymous namespace)::remapper" = type { %class.anon, double }
%class.anon = type { ptr }

@_ZZNK8QuantLib19HazardRateStructure23survivalProbabilityImplEdE8integral = internal global %"class.QuantLib::GaussChebyshevIntegration" zeroinitializer, align 8
@_ZGVZNK8QuantLib19HazardRateStructure23survivalProbabilityImplEdE8integral = internal global i64 0, align 8
@__dso_handle = external hidden global i8

; Function Attrs: mustprogress nounwind uwtable
define linkonce_odr noundef nonnull align 8 dereferenceable(8) ptr @_ZNSt10_Head_baseILm0EPdLb0EE7_M_headERKS1_(ptr noundef nonnull align 8 dereferenceable(8) %__b) #4 comdat align 2 {
entry:
  %__b.addr = alloca ptr, align 8
  store ptr %__b, ptr %__b.addr, align 8, !tbaa !3
  %0 = load ptr, ptr %__b.addr, align 8, !tbaa !3
  %_M_head_impl = getelementptr inbounds nuw %"struct.std::_Head_base.26", ptr %0, i32 0, i32 0
  ret ptr %_M_head_impl
}

; Function Attrs: mustprogress nounwind uwtable
define linkonce_odr noundef nonnull align 8 dereferenceable(8) ptr @_ZNSt11_Tuple_implILm0EJPdSt14default_deleteIA_dEEE7_M_headERKS4_(ptr noundef nonnull align 8 dereferenceable(8) %__t) #4 comdat align 2 {
entry:
  %__t.addr = alloca ptr, align 8
  store ptr %__t, ptr %__t.addr, align 8, !tbaa !3
  %0 = load ptr, ptr %__t.addr, align 8, !tbaa !3
  %call = call noundef nonnull align 8 dereferenceable(8) ptr @_ZNSt10_Head_baseILm0EPdLb0EE7_M_headERKS1_(ptr noundef nonnull align 8 dereferenceable(8) %0) #10
  ret ptr %call
}

; Function Attrs: mustprogress nounwind uwtable
define linkonce_odr noundef nonnull align 8 dereferenceable(8) ptr @_ZSt12__get_helperILm0EPdJSt14default_deleteIA_dEEERKT0_RKSt11_Tuple_implIXT_EJS4_DpT1_EE(ptr noundef nonnull align 8 dereferenceable(8) %__t) #4 comdat {
entry:
  %__t.addr = alloca ptr, align 8
  store ptr %__t, ptr %__t.addr, align 8, !tbaa !3
  %0 = load ptr, ptr %__t.addr, align 8, !tbaa !3
  %call = call noundef nonnull align 8 dereferenceable(8) ptr @_ZNSt11_Tuple_implILm0EJPdSt14default_deleteIA_dEEE7_M_headERKS4_(ptr noundef nonnull align 8 dereferenceable(8) %0) #10
  ret ptr %call
}

; Function Attrs: mustprogress nounwind uwtable
define linkonce_odr noundef nonnull align 8 dereferenceable(8) ptr @_ZSt3getILm0EJPdSt14default_deleteIA_dEEERKNSt13tuple_elementIXT_ESt5tupleIJDpT0_EEE4typeERKS8_(ptr noundef nonnull align 8 dereferenceable(8) %__t) #4 comdat {
entry:
  %__t.addr = alloca ptr, align 8
  store ptr %__t, ptr %__t.addr, align 8, !tbaa !3
  %0 = load ptr, ptr %__t.addr, align 8, !tbaa !3
  %call = call noundef nonnull align 8 dereferenceable(8) ptr @_ZSt12__get_helperILm0EPdJSt14default_deleteIA_dEEERKT0_RKSt11_Tuple_implIXT_EJS4_DpT1_EE(ptr noundef nonnull align 8 dereferenceable(8) %0) #10
  ret ptr %call
}

; Function Attrs: mustprogress nounwind uwtable
define linkonce_odr noundef ptr @_ZNKSt15__uniq_ptr_implIdSt14default_deleteIA_dEE6_M_ptrEv(ptr noundef nonnull align 8 dereferenceable(8) %this) #4 comdat align 2 {
entry:
  %this.addr = alloca ptr, align 8
  store ptr %this, ptr %this.addr, align 8, !tbaa !3
  %this1 = load ptr, ptr %this.addr, align 8
  %_M_t = getelementptr inbounds nuw %"class.std::__uniq_ptr_impl", ptr %this1, i32 0, i32 0
  %call = call noundef nonnull align 8 dereferenceable(8) ptr @_ZSt3getILm0EJPdSt14default_deleteIA_dEEERKNSt13tuple_elementIXT_ESt5tupleIJDpT0_EEE4typeERKS8_(ptr noundef nonnull align 8 dereferenceable(8) %_M_t) #10
  %0 = load ptr, ptr %call, align 8, !tbaa !3
  ret ptr %0
}

; Function Attrs: inlinehint mustprogress uwtable
define internal noundef double @"_ZZNK8QuantLib19HazardRateStructure23survivalProbabilityImplEdENK3$_0clEd"(ptr noundef nonnull align 8 dereferenceable(8) %this, double noundef %tau) #6 align 2 {
entry:
  %this.addr = alloca ptr, align 8
  %tau.addr = alloca double, align 8
  store ptr %this, ptr %this.addr, align 8, !tbaa !3
  store double %tau, ptr %tau.addr, align 8, !tbaa !14
  %this1 = load ptr, ptr %this.addr, align 8
  %0 = getelementptr inbounds nuw %class.anon, ptr %this1, i32 0, i32 0
  %1 = load ptr, ptr %0, align 8, !tbaa !17
  %2 = load double, ptr %tau.addr, align 8, !tbaa !14
  %vtable = load ptr, ptr %1, align 8, !tbaa !7
  %vfn = getelementptr inbounds ptr, ptr %vtable, i64 11
  %3 = load ptr, ptr %vfn, align 8
  %call = call noundef double %3(ptr noundef nonnull align 8 dereferenceable(152) %1, double noundef %2)
  ret double %call
}

; Function Attrs: mustprogress nounwind uwtable
define linkonce_odr noundef ptr @_ZNKSt10unique_ptrIA_dSt14default_deleteIS0_EE3getEv(ptr noundef nonnull align 8 dereferenceable(8) %this) #4 comdat align 2 {
entry:
  %this.addr = alloca ptr, align 8
  store ptr %this, ptr %this.addr, align 8, !tbaa !3
  %this1 = load ptr, ptr %this.addr, align 8
  %_M_t = getelementptr inbounds nuw %"class.std::unique_ptr", ptr %this1, i32 0, i32 0
  %call = call noundef ptr @_ZNKSt15__uniq_ptr_implIdSt14default_deleteIA_dEE6_M_ptrEv(ptr noundef nonnull align 8 dereferenceable(8) %_M_t) #10
  ret ptr %call
}

; Function Attrs: inlinehint mustprogress nounwind uwtable
define linkonce_odr noundef i64 @_ZNK8QuantLib5Array4sizeEv(ptr noundef nonnull align 8 dereferenceable(16) %this) #5 comdat align 2 {
entry:
  %this.addr = alloca ptr, align 8
  store ptr %this, ptr %this.addr, align 8, !tbaa !3
  %this1 = load ptr, ptr %this.addr, align 8
  %n_ = getelementptr inbounds nuw %"class.QuantLib::Array", ptr %this1, i32 0, i32 1
  %0 = load i64, ptr %n_, align 8, !tbaa !88
  ret i64 %0
}

; Function Attrs: mustprogress uwtable
define internal noundef double @"_ZNK8QuantLib12_GLOBAL__N_18remapperIZNKS_19HazardRateStructure23survivalProbabilityImplEdE3$_0EclEd"(ptr noundef nonnull align 8 dereferenceable(16) %this, double noundef %x) #9 align 2 {
entry:
  %this.addr = alloca ptr, align 8
  %x.addr = alloca double, align 8
  %arg = alloca double, align 8
  store ptr %this, ptr %this.addr, align 8, !tbaa !3
  store double %x, ptr %x.addr, align 8, !tbaa !14
  %this1 = load ptr, ptr %this.addr, align 8
  call void @llvm.lifetime.start.p0(i64 8, ptr %arg) #10
  %0 = load double, ptr %x.addr, align 8, !tbaa !14
  %add = fadd double %0, 1.000000e+00
  %T = getelementptr inbounds nuw %"struct.QuantLib::(anonymous namespace)::remapper", ptr %this1, i32 0, i32 1
  %1 = load double, ptr %T, align 8, !tbaa !86
  %mul = fmul double %add, %1
  %div = fdiv double %mul, 2.000000e+00
  store double %div, ptr %arg, align 8, !tbaa !14
  %f = getelementptr inbounds nuw %"struct.QuantLib::(anonymous namespace)::remapper", ptr %this1, i32 0, i32 0
  %2 = load double, ptr %arg, align 8, !tbaa !14
  %call = call noundef double @"_ZZNK8QuantLib19HazardRateStructure23survivalProbabilityImplEdENK3$_0clEd"(ptr noundef nonnull align 8 dereferenceable(8) %f, double noundef %2)
  call void @llvm.lifetime.end.p0(i64 8, ptr %arg) #10
  ret double %call
}

; Function Attrs: inlinehint mustprogress nounwind uwtable
define linkonce_odr noundef double @_ZNK8QuantLib5ArrayixEm(ptr noundef nonnull align 8 dereferenceable(16) %this, i64 noundef %i) #5 comdat align 2 {
entry:
  %this.addr = alloca ptr, align 8
  %i.addr = alloca i64, align 8
  store ptr %this, ptr %this.addr, align 8, !tbaa !3
  store i64 %i, ptr %i.addr, align 8, !tbaa !19
  %this1 = load ptr, ptr %this.addr, align 8
  %data_ = getelementptr inbounds nuw %"class.QuantLib::Array", ptr %this1, i32 0, i32 0
  %call = call noundef ptr @_ZNKSt10unique_ptrIA_dSt14default_deleteIS0_EE3getEv(ptr noundef nonnull align 8 dereferenceable(8) %data_) #10
  %0 = load i64, ptr %i.addr, align 8, !tbaa !19
  %arrayidx = getelementptr inbounds nuw double, ptr %call, i64 %0
  %1 = load double, ptr %arrayidx, align 8, !tbaa !14
  ret double %1
}

; Function Attrs: mustprogress uwtable
define linkonce_odr noundef i64 @_ZNK8QuantLib18GaussianQuadrature5orderEv(ptr noundef nonnull align 8 dereferenceable(32) %this) #9 comdat align 2 {
entry:
  %this.addr = alloca ptr, align 8
  store ptr %this, ptr %this.addr, align 8, !tbaa !3
  %this1 = load ptr, ptr %this.addr, align 8
  %x_ = getelementptr inbounds nuw %"class.QuantLib::GaussianQuadrature", ptr %this1, i32 0, i32 0
  %call = call noundef i64 @_ZNK8QuantLib5Array4sizeEv(ptr noundef nonnull align 8 dereferenceable(16) %x_)
  ret i64 %call
}

; Function Attrs: mustprogress nounwind uwtable
define internal void @"_ZN8QuantLib12_GLOBAL__N_18remapperIZNKS_19HazardRateStructure23survivalProbabilityImplEdE3$_0EC2ES3_d"(ptr noundef nonnull align 8 dereferenceable(16) %this, ptr %f.coerce, double noundef %T) unnamed_addr #4 align 2 {
entry:
  %f = alloca %class.anon, align 8
  %this.addr = alloca ptr, align 8
  %T.addr = alloca double, align 8
  %coerce.dive = getelementptr inbounds nuw %class.anon, ptr %f, i32 0, i32 0
  store ptr %f.coerce, ptr %coerce.dive, align 8
  store ptr %this, ptr %this.addr, align 8, !tbaa !3
  store double %T, ptr %T.addr, align 8, !tbaa !14
  %this1 = load ptr, ptr %this.addr, align 8
  %f2 = getelementptr inbounds nuw %"struct.QuantLib::(anonymous namespace)::remapper", ptr %this1, i32 0, i32 0
  call void @llvm.memcpy.p0.p0.i64(ptr align 8 %f2, ptr align 8 %f, i64 8, i1 false), !tbaa.struct !23
  %T3 = getelementptr inbounds nuw %"struct.QuantLib::(anonymous namespace)::remapper", ptr %this1, i32 0, i32 1
  %0 = load double, ptr %T.addr, align 8, !tbaa !14
  store double %0, ptr %T3, align 8, !tbaa !86
  ret void
}

; Function Attrs: mustprogress uwtable
define internal noundef double @"_ZNK8QuantLib18GaussianQuadratureclINS_12_GLOBAL__N_18remapperIZNKS_19HazardRateStructure23survivalProbabilityImplEdE3$_0EEEEdRKT_"(ptr noundef nonnull align 8 dereferenceable(32) %this, ptr noundef nonnull align 8 dereferenceable(16) %f) #9 align 2 {
entry:
  %this.addr = alloca ptr, align 8
  %f.addr = alloca ptr, align 8
  %sum = alloca double, align 8
  %i = alloca i32, align 4
  store ptr %this, ptr %this.addr, align 8, !tbaa !3
  store ptr %f, ptr %f.addr, align 8, !tbaa !3
  %this1 = load ptr, ptr %this.addr, align 8
  call void @llvm.lifetime.start.p0(i64 8, ptr %sum) #10
  store double 0.000000e+00, ptr %sum, align 8, !tbaa !14
  call void @llvm.lifetime.start.p0(i64 4, ptr %i) #10
  %call = call noundef i64 @_ZNK8QuantLib18GaussianQuadrature5orderEv(ptr noundef nonnull align 8 dereferenceable(32) %this1)
  %conv = trunc i64 %call to i32
  %sub = sub nsw i32 %conv, 1
  store i32 %sub, ptr %i, align 4, !tbaa !12
  br label %for.cond

for.cond:                                         ; preds = %for.inc, %entry
  %0 = load i32, ptr %i, align 4, !tbaa !12
  %cmp = icmp sge i32 %0, 0
  br i1 %cmp, label %for.body, label %for.cond.cleanup

for.cond.cleanup:                                 ; preds = %for.cond
  call void @llvm.lifetime.end.p0(i64 4, ptr %i) #10
  br label %for.end

for.body:                                         ; preds = %for.cond
  %w_ = getelementptr inbounds nuw %"class.QuantLib::GaussianQuadrature", ptr %this1, i32 0, i32 1
  %1 = load i32, ptr %i, align 4, !tbaa !12
  %conv2 = sext i32 %1 to i64
  %call3 = call noundef double @_ZNK8QuantLib5ArrayixEm(ptr noundef nonnull align 8 dereferenceable(16) %w_, i64 noundef %conv2)
  %2 = load ptr, ptr %f.addr, align 8, !tbaa !3
  %x_ = getelementptr inbounds nuw %"class.QuantLib::GaussianQuadrature", ptr %this1, i32 0, i32 0
  %3 = load i32, ptr %i, align 4, !tbaa !12
  %conv4 = sext i32 %3 to i64
  %call5 = call noundef double @_ZNK8QuantLib5ArrayixEm(ptr noundef nonnull align 8 dereferenceable(16) %x_, i64 noundef %conv4)
  %call6 = call noundef double @"_ZNK8QuantLib12_GLOBAL__N_18remapperIZNKS_19HazardRateStructure23survivalProbabilityImplEdE3$_0EclEd"(ptr noundef nonnull align 8 dereferenceable(16) %2, double noundef %call5)
  %4 = load double, ptr %sum, align 8, !tbaa !14
  %5 = call double @llvm.fmuladd.f64(double %call3, double %call6, double %4)
  store double %5, ptr %sum, align 8, !tbaa !14
  br label %for.inc

for.inc:                                          ; preds = %for.body
  %6 = load i32, ptr %i, align 4, !tbaa !12
  %dec = add nsw i32 %6, -1
  store i32 %dec, ptr %i, align 4, !tbaa !12
  br label %for.cond, !llvm.loop !21

for.end:                                          ; preds = %for.cond.cleanup
  %7 = load double, ptr %sum, align 8, !tbaa !14
  call void @llvm.lifetime.end.p0(i64 8, ptr %sum) #10
  ret double %7
}

; Function Attrs: mustprogress uwtable
define internal { ptr, double } @"_ZN8QuantLib12_GLOBAL__N_15remapIZNKS_19HazardRateStructure23survivalProbabilityImplEdE3$_0EENS0_8remapperIT_EERKS5_d"(ptr noundef nonnull align 8 dereferenceable(8) %f, double noundef %T) #9 {
entry:
  %retval = alloca %"struct.QuantLib::(anonymous namespace)::remapper", align 8
  %f.addr = alloca ptr, align 8
  %T.addr = alloca double, align 8
  %agg.tmp = alloca %class.anon, align 8
  store ptr %f, ptr %f.addr, align 8, !tbaa !3
  store double %T, ptr %T.addr, align 8, !tbaa !14
  %0 = load ptr, ptr %f.addr, align 8, !tbaa !3
  call void @llvm.memcpy.p0.p0.i64(ptr align 8 %agg.tmp, ptr align 8 %0, i64 8, i1 false), !tbaa.struct !23
  %1 = load double, ptr %T.addr, align 8, !tbaa !14
  %coerce.dive = getelementptr inbounds nuw %class.anon, ptr %agg.tmp, i32 0, i32 0
  %2 = load ptr, ptr %coerce.dive, align 8
  call void @"_ZN8QuantLib12_GLOBAL__N_18remapperIZNKS_19HazardRateStructure23survivalProbabilityImplEdE3$_0EC2ES3_d"(ptr noundef nonnull align 8 dereferenceable(16) %retval, ptr %2, double noundef %1)
  %3 = load { ptr, double }, ptr %retval, align 8
  ret { ptr, double } %3
}

; Function Attrs: mustprogress uwtable
define noundef double @_ZNK8QuantLib19HazardRateStructure23survivalProbabilityImplEd(ptr noundef nonnull align 8 dereferenceable(152) %this, double noundef %t) unnamed_addr #9 align 2 personality ptr @__gxx_personality_v0 {
entry:
  %this.addr = alloca ptr, align 8
  %t.addr = alloca double, align 8
  %exn.slot = alloca ptr, align 8
  %ehselector.slot = alloca i32, align 4
  %ref.tmp = alloca %"struct.QuantLib::(anonymous namespace)::remapper", align 8
  %ref.tmp2 = alloca %class.anon, align 8
  store ptr %this, ptr %this.addr, align 8, !tbaa !3
  store double %t, ptr %t.addr, align 8, !tbaa !14
  %this1 = load ptr, ptr %this.addr, align 8
  %0 = load atomic i8, ptr @_ZGVZNK8QuantLib19HazardRateStructure23survivalProbabilityImplEdE8integral acquire, align 8
  %guard.uninitialized = icmp eq i8 %0, 0
  br i1 %guard.uninitialized, label %init.check, label %init.end, !prof !16

init.check:                                       ; preds = %entry
  %1 = call i32 @__cxa_guard_acquire(ptr @_ZGVZNK8QuantLib19HazardRateStructure23survivalProbabilityImplEdE8integral) #10
  %tobool = icmp ne i32 %1, 0
  br i1 %tobool, label %init, label %init.end

init:                                             ; preds = %init.check
  invoke void @_ZN8QuantLib25GaussChebyshevIntegrationC2Em(ptr noundef nonnull align 8 dereferenceable(32) @_ZZNK8QuantLib19HazardRateStructure23survivalProbabilityImplEdE8integral, i64 noundef 48)
          to label %invoke.cont unwind label %lpad

invoke.cont:                                      ; preds = %init
  %2 = call i32 @__cxa_atexit(ptr @_ZN8QuantLib18GaussianQuadratureD2Ev, ptr @_ZZNK8QuantLib19HazardRateStructure23survivalProbabilityImplEdE8integral, ptr @__dso_handle) #10
  call void @__cxa_guard_release(ptr @_ZGVZNK8QuantLib19HazardRateStructure23survivalProbabilityImplEdE8integral) #10
  br label %init.end

init.end:                                         ; preds = %invoke.cont, %init.check, %entry
  call void @llvm.lifetime.start.p0(i64 16, ptr %ref.tmp) #10
  call void @llvm.lifetime.start.p0(i64 8, ptr %ref.tmp2) #10
  %3 = getelementptr inbounds nuw %class.anon, ptr %ref.tmp2, i32 0, i32 0
  store ptr %this1, ptr %3, align 8, !tbaa !17
  %4 = load double, ptr %t.addr, align 8, !tbaa !14
  %call = call { ptr, double } @"_ZN8QuantLib12_GLOBAL__N_15remapIZNKS_19HazardRateStructure23survivalProbabilityImplEdE3$_0EENS0_8remapperIT_EERKS5_d"(ptr noundef nonnull align 8 dereferenceable(8) %ref.tmp2, double noundef %4)
  %5 = getelementptr inbounds nuw { ptr, double }, ptr %ref.tmp, i32 0, i32 0
  %6 = extractvalue { ptr, double } %call, 0
  store ptr %6, ptr %5, align 8
  %7 = getelementptr inbounds nuw { ptr, double }, ptr %ref.tmp, i32 0, i32 1
  %8 = extractvalue { ptr, double } %call, 1
  store double %8, ptr %7, align 8
  %call3 = call noundef double @"_ZNK8QuantLib18GaussianQuadratureclINS_12_GLOBAL__N_18remapperIZNKS_19HazardRateStructure23survivalProbabilityImplEdE3$_0EEEEdRKT_"(ptr noundef nonnull align 8 dereferenceable(32) @_ZZNK8QuantLib19HazardRateStructure23survivalProbabilityImplEdE8integral, ptr noundef nonnull align 8 dereferenceable(16) %ref.tmp)
  %fneg = fneg double %call3
  %9 = load double, ptr %t.addr, align 8, !tbaa !14
  %mul = fmul double %fneg, %9
  %div = fdiv double %mul, 2.000000e+00
  %call4 = call double @exp(double noundef %div) #10, !tbaa !12
  call void @llvm.lifetime.end.p0(i64 8, ptr %ref.tmp2) #10
  call void @llvm.lifetime.end.p0(i64 16, ptr %ref.tmp) #10
  ret double %call4

lpad:                                             ; preds = %init
  %10 = landingpad { ptr, i32 }
          cleanup
  %11 = extractvalue { ptr, i32 } %10, 0
  store ptr %11, ptr %exn.slot, align 8
  %12 = extractvalue { ptr, i32 } %10, 1
  store i32 %12, ptr %ehselector.slot, align 4
  call void @__cxa_guard_abort(ptr @_ZGVZNK8QuantLib19HazardRateStructure23survivalProbabilityImplEdE8integral) #10
  br label %eh.resume

eh.resume:                                        ; preds = %lpad
  %exn = load ptr, ptr %exn.slot, align 8
  %sel = load i32, ptr %ehselector.slot, align 4
  %lpad.val = insertvalue { ptr, i32 } poison, ptr %exn, 0
  %lpad.val5 = insertvalue { ptr, i32 } %lpad.val, i32 %sel, 1
  resume { ptr, i32 } %lpad.val5
}