; Function Attrs: mustprogress uwtable
define noundef double @_ZNK8QuantLib19HazardRateStructure23survivalProbabilityImplEd(ptr noundef nonnull align 8 dereferenceable(152) %this, double noundef %t) unnamed_addr #8 align 2 personality ptr @__gxx_personality_v0 {
entry:
  %0 = load atomic i8, ptr @_ZGVZNK8QuantLib19HazardRateStructure23survivalProbabilityImplEdE8integral acquire, align 8
  %guard.uninitialized = icmp eq i8 %0, 0
  br i1 %guard.uninitialized, label %init.check, label %init.end, !prof !44

init.check:                                       ; preds = %entry
  %1 = tail call i32 @__cxa_guard_acquire(ptr nonnull @_ZGVZNK8QuantLib19HazardRateStructure23survivalProbabilityImplEdE8integral) #27
  %tobool.not = icmp eq i32 %1, 0
  br i1 %tobool.not, label %init.end, label %init

init:                                             ; preds = %init.check
  invoke void @_ZN8QuantLib25GaussChebyshevIntegrationC2Em(ptr noundef nonnull align 8 dereferenceable(32) @_ZZNK8QuantLib19HazardRateStructure23survivalProbabilityImplEdE8integral, i64 noundef 48)
          to label %invoke.cont unwind label %lpad

invoke.cont:                                      ; preds = %init
  %2 = tail call i32 @__cxa_atexit(ptr nonnull @_ZN8QuantLib18GaussianQuadratureD2Ev, ptr nonnull @_ZZNK8QuantLib19HazardRateStructure23survivalProbabilityImplEdE8integral, ptr nonnull @__dso_handle) #27
  tail call void @__cxa_guard_release(ptr nonnull @_ZGVZNK8QuantLib19HazardRateStructure23survivalProbabilityImplEdE8integral) #27
  br label %init.end

init.end:                                         ; preds = %invoke.cont, %init.check, %entry
  %3 = load i64, ptr getelementptr inbounds nuw (i8, ptr @_ZZNK8QuantLib19HazardRateStructure23survivalProbabilityImplEdE8integral, i64 8), align 8, !tbaa !45
  %conv.i = trunc i64 %3 to i32
  %cmp1.i = icmp sgt i32 %conv.i, 0
  br i1 %cmp1.i, label %for.body.lr.ph.i, label %"_ZNK8QuantLib18GaussianQuadratureclINS_12_GLOBAL__N_18remapperIZNKS_19HazardRateStructure23survivalProbabilityImplEdE3$_0EEEEdRKT_.exit"

for.body.lr.ph.i:                                 ; preds = %init.end
  %4 = and i64 %3, 2147483647
  br label %for.body.i

for.body.i:                                       ; preds = %for.body.i, %for.body.lr.ph.i
  %indvars.iv.i = phi i64 [ %4, %for.body.lr.ph.i ], [ %indvars.iv.next.i, %for.body.i ]
  %sum.02.i = phi double [ 0.000000e+00, %for.body.lr.ph.i ], [ %10, %for.body.i ]
  %indvars.iv.next.i = add nsw i64 %indvars.iv.i, -1
  %5 = load ptr, ptr getelementptr inbounds nuw (i8, ptr @_ZZNK8QuantLib19HazardRateStructure23survivalProbabilityImplEdE8integral, i64 16), align 8, !tbaa !15
  %arrayidx.i.i = getelementptr inbounds nuw double, ptr %5, i64 %indvars.iv.next.i
  %6 = load double, ptr %arrayidx.i.i, align 8, !tbaa !53
  %7 = load ptr, ptr @_ZZNK8QuantLib19HazardRateStructure23survivalProbabilityImplEdE8integral, align 8, !tbaa !15
  %arrayidx.i6.i = getelementptr inbounds nuw double, ptr %7, i64 %indvars.iv.next.i
  %8 = load double, ptr %arrayidx.i6.i, align 8, !tbaa !53
  %add.i.i = fadd double %8, 1.000000e+00
  %mul.i.i = fmul double %t, %add.i.i
  %div.i.i = fmul double %mul.i.i, 5.000000e-01
  %vtable.i.i.i = load ptr, ptr %this, align 8, !tbaa !10
  %vfn.i.i.i = getelementptr inbounds i8, ptr %vtable.i.i.i, i64 88
  %9 = load ptr, ptr %vfn.i.i.i, align 8
  %call.i.i.i = tail call noundef double %9(ptr noundef nonnull align 8 dereferenceable(152) %this, double noundef %div.i.i)
  %10 = tail call double @llvm.fmuladd.f64(double %6, double %call.i.i.i, double %sum.02.i)
  %cmp.i = icmp ugt i64 %indvars.iv.i, 1
  br i1 %cmp.i, label %for.body.i, label %"_ZNK8QuantLib18GaussianQuadratureclINS_12_GLOBAL__N_18remapperIZNKS_19HazardRateStructure23survivalProbabilityImplEdE3$_0EEEEdRKT_.exit", !llvm.loop !55

"_ZNK8QuantLib18GaussianQuadratureclINS_12_GLOBAL__N_18remapperIZNKS_19HazardRateStructure23survivalProbabilityImplEdE3$_0EEEEdRKT_.exit": ; preds = %for.body.i, %init.end
  %sum.0.lcssa.i = phi double [ 0.000000e+00, %init.end ], [ %10, %for.body.i ]
  %fneg = fneg double %sum.0.lcssa.i
  %mul = fmul double %t, %fneg
  %div = fmul double %mul, 5.000000e-01
  %call4 = tail call double @exp(double noundef %div) #27, !tbaa !56
  ret double %call4

lpad:                                             ; preds = %init
  %11 = landingpad { ptr, i32 }
          cleanup
  tail call void @__cxa_guard_abort(ptr nonnull @_ZGVZNK8QuantLib19HazardRateStructure23survivalProbabilityImplEdE8integral) #27
  resume { ptr, i32 } %11
}